target datalayout = "e-m:e-p270:32:32-p271:32:32-p272:64:64-i64:64-i128:128-f80:128-n8:16:32:64-S128"
target triple = "x86_64-unknown-linux-gnu"

%"class.smt::theory_datatype::final_check_st" = type { ptr }
%"class.smt::theory_datatype" = type { %"class.smt::theory.base", %"class.datatype::util", %class.array_util, %class.seq_util, %class.ptr_vector.36, %class.union_find, %class.trail_stack, ptr, %"struct.smt::theory_datatype::stats", %class.ptr_vector, %class.ptr_vector, %class.svector.40, %class.obj_map.42, %class.svector.47, %class.svector.49, %class.ptr_vector, %class.ptr_vector }
%"class.smt::theory.base" = type <{ ptr, i32, [4 x i8], ptr, ptr, %class.ptr_vector, %class.svector, i32, i8 }>
%class.svector = type { %class.vector.0 }
%class.vector.0 = type { ptr }
%"class.datatype::util" = type { ptr, i32, ptr, %class.obj_map, %class.obj_map.1, %class.obj_map.6, %class.obj_map.11, %class.obj_map.11, %class.obj_map.11, %class.obj_map.16, %class.obj_map.16, %class.obj_map.16, %class.ref_vector, %class.ref_vector_core.23, %class.ptr_vector.26, i32, %class.ptr_vector.28 }
%class.obj_map = type { %class.core_hashtable }
%class.core_hashtable = type <{ ptr, i32, i32, i32, [4 x i8] }>
%class.obj_map.1 = type { %class.core_hashtable.2 }
%class.core_hashtable.2 = type <{ ptr, i32, i32, i32, [4 x i8] }>
%class.obj_map.6 = type { %class.core_hashtable.7 }
%class.core_hashtable.7 = type <{ ptr, i32, i32, i32, [4 x i8] }>
%class.obj_map.11 = type { %class.core_hashtable.12 }
%class.core_hashtable.12 = type <{ ptr, i32, i32, i32, [4 x i8] }>
%class.obj_map.16 = type { %class.core_hashtable.17 }
%class.core_hashtable.17 = type <{ ptr, i32, i32, i32, [4 x i8] }>
%class.ref_vector = type { %class.ref_vector_core }
%class.ref_vector_core = type { %class.ref_manager_wrapper, %class.ptr_vector.21 }
%class.ref_manager_wrapper = type { ptr }
%class.ptr_vector.21 = type { %class.vector.22 }
%class.vector.22 = type { ptr }
%class.ref_vector_core.23 = type { %class.ptr_vector.24 }
%class.ptr_vector.24 = type { %class.vector.25 }
%class.vector.25 = type { ptr }
%class.ptr_vector.26 = type { %class.vector.27 }
%class.vector.27 = type { ptr }
%class.ptr_vector.28 = type { %class.vector.29 }
%class.vector.29 = type { ptr }
%class.array_util = type { %class.array_recognizers, ptr }
%class.array_recognizers = type { i32 }
%class.seq_util = type { ptr, ptr, ptr, i32, [4 x i8], %"class.seq_util::str", %"class.seq_util::rex" }
%"class.seq_util::str" = type <{ ptr, ptr, i32, [4 x i8] }>
%"class.seq_util::rex" = type { ptr, ptr, i32, %class.vector.30, %class.ref_vector.31, %"struct.seq_util::rex::info", %"struct.seq_util::rex::info" }
%class.vector.30 = type { ptr }
%class.ref_vector.31 = type { %class.ref_vector_core.32 }
%class.ref_vector_core.32 = type { %class.ref_manager_wrapper.33, %class.ptr_vector.34 }
%class.ref_manager_wrapper.33 = type { ptr }
%class.ptr_vector.34 = type { %class.vector.35 }
%class.vector.35 = type { ptr }
%"struct.seq_util::rex::info" = type { i32, i8, i32, i32 }
%class.ptr_vector.36 = type { %class.vector.37 }
%class.vector.37 = type { ptr }
%class.union_find = type { ptr, ptr, %class.svector, %class.svector, %class.svector, %"class.union_find<smt::theory_datatype>::mk_var_trail" }
%"class.union_find<smt::theory_datatype>::mk_var_trail" = type { %class.trail, ptr }
%class.trail = type { ptr }
%class.trail_stack = type { %class.ptr_vector.38, %class.svector, %class.region }
%class.ptr_vector.38 = type { %class.vector.39 }
%class.vector.39 = type { ptr }
%class.region = type { ptr, ptr, ptr, ptr, ptr }
%"struct.smt::theory_datatype::stats" = type { i32, i32, i32, i32, i32 }
%class.svector.40 = type { %class.vector.41 }
%class.vector.41 = type { ptr }
%class.obj_map.42 = type { %class.core_hashtable.43 }
%class.core_hashtable.43 = type <{ ptr, i32, i32, i32, [4 x i8] }>
%class.svector.47 = type { %class.vector.48 }
%class.vector.48 = type { ptr }
%class.svector.49 = type { %class.vector.50 }
%class.vector.50 = type { ptr }
%class.ptr_vector = type { %class.vector }
%class.vector = type { ptr }

; Function Attrs: mustprogress nounwind uwtable
define linkonce_odr hidden void @_ZN6vectorIPN3smt5enodeELb0EjE5resetEv(ptr noundef nonnull align 8 dereferenceable(8) %this) #4 comdat align 2 {
entry:
  %this.addr = alloca ptr, align 8
  store ptr %this, ptr %this.addr, align 8
  %this1 = load ptr, ptr %this.addr, align 8
  %m_data = getelementptr inbounds %class.vector, ptr %this1, i32 0, i32 0
  %0 = load ptr, ptr %m_data, align 8
  %tobool = icmp ne ptr %0, null
  br i1 %tobool, label %if.then, label %if.end

if.then:                                          ; preds = %entry
  %m_data2 = getelementptr inbounds %class.vector, ptr %this1, i32 0, i32 0
  %1 = load ptr, ptr %m_data2, align 8
  %arrayidx = getelementptr inbounds i32, ptr %1, i64 -1
  store i32 0, ptr %arrayidx, align 4
  br label %if.end

if.end:                                           ; preds = %if.then, %entry
  ret void
}

; Function Attrs: mustprogress nounwind uwtable
define linkonce_odr hidden noundef ptr @_ZNK6vectorIPN3smt5enodeELb0EjE4dataEv(ptr noundef nonnull align 8 dereferenceable(8) %this) #4 comdat align 2 {
entry:
  %this.addr = alloca ptr, align 8
  store ptr %this, ptr %this.addr, align 8
  %this1 = load ptr, ptr %this.addr, align 8
  %m_data = getelementptr inbounds %class.vector, ptr %this1, i32 0, i32 0
  %0 = load ptr, ptr %m_data, align 8
  ret ptr %0
}

; Function Attrs: mustprogress nounwind uwtable
define linkonce_odr hidden noundef i32 @_ZNK6vectorIPN3smt5enodeELb0EjE4sizeEv(ptr noundef nonnull align 8 dereferenceable(8) %this) #4 comdat align 2 {
entry:
  %retval = alloca i32, align 4
  %this.addr = alloca ptr, align 8
  store ptr %this, ptr %this.addr, align 8
  %this1 = load ptr, ptr %this.addr, align 8
  %m_data = getelementptr inbounds %class.vector, ptr %this1, i32 0, i32 0
  %0 = load ptr, ptr %m_data, align 8
  %cmp = icmp eq ptr %0, null
  br i1 %cmp, label %if.then, label %if.end

if.then:                                          ; preds = %entry
  store i32 0, ptr %retval, align 4
  br label %return

if.end:                                           ; preds = %entry
  %m_data2 = getelementptr inbounds %class.vector, ptr %this1, i32 0, i32 0
  %1 = load ptr, ptr %m_data2, align 8
  %arrayidx = getelementptr inbounds i32, ptr %1, i64 -1
  %2 = load i32, ptr %arrayidx, align 4
  store i32 %2, ptr %retval, align 4
  br label %return

return:                                           ; preds = %if.end, %if.then
  %3 = load i32, ptr %retval, align 4
  ret i32 %3
}

; Function Attrs: mustprogress uwtable
define hidden void @_ZN3smt15theory_datatype10clear_markEv(ptr noundef nonnull align 8 dereferenceable(728) %this) #5 align 2 {
entry:
  %this.addr = alloca ptr, align 8
  store ptr %this, ptr %this.addr, align 8
  %this1 = load ptr, ptr %this.addr, align 8
  %m_to_unmark = getelementptr inbounds %"class.smt::theory_datatype", ptr %this1, i32 0, i32 9
  %call = call noundef i32 @_ZNK6vectorIPN3smt5enodeELb0EjE4sizeEv(ptr noundef nonnull align 8 dereferenceable(8) %m_to_unmark)
  %m_to_unmark2 = getelementptr inbounds %"class.smt::theory_datatype", ptr %this1, i32 0, i32 9
  %call3 = call noundef ptr @_ZNK6vectorIPN3smt5enodeELb0EjE4dataEv(ptr noundef nonnull align 8 dereferenceable(8) %m_to_unmark2)
  call void @_ZN3smt13unmark_enodesEjPKPNS_5enodeE(i32 noundef %call, ptr noundef %call3)
  %m_to_unmark24 = getelementptr inbounds %"class.smt::theory_datatype", ptr %this1, i32 0, i32 10
  %call5 = call noundef i32 @_ZNK6vectorIPN3smt5enodeELb0EjE4sizeEv(ptr noundef nonnull align 8 dereferenceable(8) %m_to_unmark24)
  %m_to_unmark26 = getelementptr inbounds %"class.smt::theory_datatype", ptr %this1, i32 0, i32 10
  %call7 = call noundef ptr @_ZNK6vectorIPN3smt5enodeELb0EjE4dataEv(ptr noundef nonnull align 8 dereferenceable(8) %m_to_unmark26)
  call void @_ZN3smt14unmark_enodes2EjPKPNS_5enodeE(i32 noundef %call5, ptr noundef %call7)
  %m_to_unmark8 = getelementptr inbounds %"class.smt::theory_datatype", ptr %this1, i32 0, i32 9
  call void @_ZN6vectorIPN3smt5enodeELb0EjE5resetEv(ptr noundef nonnull align 8 dereferenceable(8) %m_to_unmark8)
  %m_to_unmark29 = getelementptr inbounds %"class.smt::theory_datatype", ptr %this1, i32 0, i32 10
  call void @_ZN6vectorIPN3smt5enodeELb0EjE5resetEv(ptr noundef nonnull align 8 dereferenceable(8) %m_to_unmark29)
  ret void
}

; Function Attrs: mustprogress nounwind uwtable
define hidden void @_ZN3smt15theory_datatype14final_check_stD2Ev(ptr noundef nonnull align 8 dereferenceable(8) %this) unnamed_addr #4 align 2 personality ptr @__gxx_personality_v0 {
entry:
  %this.addr = alloca ptr, align 8
  store ptr %this, ptr %this.addr, align 8
  %this1 = load ptr, ptr %this.addr, align 8
  %th = getelementptr inbounds %"class.smt::theory_datatype::final_check_st", ptr %this1, i32 0, i32 0
  %0 = load ptr, ptr %th, align 8
  invoke void @_ZN3smt15theory_datatype10clear_markEv(ptr noundef nonnull align 8 dereferenceable(728) %0)
          to label %invoke.cont unwind label %terminate.lpad

invoke.cont:                                      ; preds = %entry
  ret void

terminate.lpad:                                   ; preds = %entry
  %1 = landingpad { ptr, i32 }
          catch ptr null
  %2 = extractvalue { ptr, i32 } %1, 0
  call void @__clang_call_terminate(ptr %2) #16
  unreachable
}