; Function Attrs: mustprogress nounwind uwtable
define hidden void @_ZN3smt15theory_datatype14final_check_stD2Ev(ptr nocapture noundef nonnull readonly align 8 dereferenceable(8) %this) unnamed_addr #4 align 2 personality ptr @__gxx_personality_v0 {
entry:
  %0 = load ptr, ptr %this, align 8
  %m_to_unmark.i = getelementptr inbounds i8, ptr %0, i64 648
  %1 = load ptr, ptr %m_to_unmark.i, align 8
  %cmp.i.i = icmp eq ptr %1, null
  br i1 %cmp.i.i, label %_ZNK6vectorIPN3smt5enodeELb0EjE4sizeEv.exit.i, label %if.end.i.i

if.end.i.i:                                       ; preds = %entry
  %arrayidx.i.i = getelementptr inbounds i8, ptr %1, i64 -4
  %2 = load i32, ptr %arrayidx.i.i, align 4
  br label %_ZNK6vectorIPN3smt5enodeELb0EjE4sizeEv.exit.i

_ZNK6vectorIPN3smt5enodeELb0EjE4sizeEv.exit.i:    ; preds = %if.end.i.i, %entry
  %retval.0.i.i = phi i32 [ %2, %if.end.i.i ], [ 0, %entry ]
  invoke void @_ZN3smt13unmark_enodesEjPKPNS_5enodeE(i32 noundef %retval.0.i.i, ptr noundef %1)
          to label %.noexc unwind label %terminate.lpad

.noexc:                                           ; preds = %_ZNK6vectorIPN3smt5enodeELb0EjE4sizeEv.exit.i
  %m_to_unmark24.i = getelementptr inbounds i8, ptr %0, i64 656
  %3 = load ptr, ptr %m_to_unmark24.i, align 8
  %cmp.i1.i = icmp eq ptr %3, null
  br i1 %cmp.i1.i, label %_ZNK6vectorIPN3smt5enodeELb0EjE4sizeEv.exit5.i, label %if.end.i2.i

if.end.i2.i:                                      ; preds = %.noexc
  %arrayidx.i3.i = getelementptr inbounds i8, ptr %3, i64 -4
  %4 = load i32, ptr %arrayidx.i3.i, align 4
  br label %_ZNK6vectorIPN3smt5enodeELb0EjE4sizeEv.exit5.i

_ZNK6vectorIPN3smt5enodeELb0EjE4sizeEv.exit5.i:   ; preds = %if.end.i2.i, %.noexc
  %retval.0.i4.i = phi i32 [ %4, %if.end.i2.i ], [ 0, %.noexc ]
  invoke void @_ZN3smt14unmark_enodes2EjPKPNS_5enodeE(i32 noundef %retval.0.i4.i, ptr noundef %3)
          to label %.noexc1 unwind label %terminate.lpad

.noexc1:                                          ; preds = %_ZNK6vectorIPN3smt5enodeELb0EjE4sizeEv.exit5.i
  %5 = load ptr, ptr %m_to_unmark.i, align 8
  %tobool.not.i.i = icmp eq ptr %5, null
  br i1 %tobool.not.i.i, label %_ZN6vectorIPN3smt5enodeELb0EjE5resetEv.exit.i, label %if.then.i.i

if.then.i.i:                                      ; preds = %.noexc1
  %arrayidx.i6.i = getelementptr inbounds i8, ptr %5, i64 -4
  store i32 0, ptr %arrayidx.i6.i, align 4
  br label %_ZN6vectorIPN3smt5enodeELb0EjE5resetEv.exit.i

_ZN6vectorIPN3smt5enodeELb0EjE5resetEv.exit.i:    ; preds = %if.then.i.i, %.noexc1
  %6 = load ptr, ptr %m_to_unmark24.i, align 8
  %tobool.not.i8.i = icmp eq ptr %6, null
  br i1 %tobool.not.i8.i, label %invoke.cont, label %if.then.i9.i

if.then.i9.i:                                     ; preds = %_ZN6vectorIPN3smt5enodeELb0EjE5resetEv.exit.i
  %arrayidx.i10.i = getelementptr inbounds i8, ptr %6, i64 -4
  store i32 0, ptr %arrayidx.i10.i, align 4
  br label %invoke.cont

invoke.cont:                                      ; preds = %if.then.i9.i, %_ZN6vectorIPN3smt5enodeELb0EjE5resetEv.exit.i
  ret void

terminate.lpad:                                   ; preds = %_ZNK6vectorIPN3smt5enodeELb0EjE4sizeEv.exit5.i, %_ZNK6vectorIPN3smt5enodeELb0EjE4sizeEv.exit.i
  %7 = landingpad { ptr, i32 }
          catch ptr null
  %8 = extractvalue { ptr, i32 } %7, 0
  tail call void @__clang_call_terminate(ptr %8) #23
  unreachable
}